target datalayout = "e-m:e-p270:32:32-p271:32:32-p272:64:64-i64:64-i128:128-f80:128-n8:16:32:64-S128"
target triple = "x86_64-pc-linux-gnu"

%struct.blob = type { %struct.object }
%struct.object = type { i32, %struct.object_id }
%struct.object_id = type { [32 x i8], i32 }

@.str = private unnamed_addr constant [5 x i8] c"blob\00", align 1
@blob_type = dso_local global ptr @.str, align 8

; Function Attrs: nounwind uwtable
define dso_local ptr @lookup_blob(ptr noundef %0, ptr noundef %1) #0 {
  %3 = alloca ptr, align 8
  %4 = alloca ptr, align 8
  %5 = alloca ptr, align 8
  %6 = alloca ptr, align 8
  %7 = alloca i32, align 4
  store ptr %0, ptr %4, align 8, !tbaa !4
  store ptr %1, ptr %5, align 8, !tbaa !9
  call void @llvm.lifetime.start.p0(i64 8, ptr %6) #3
  %8 = load ptr, ptr %4, align 8, !tbaa !4
  %9 = load ptr, ptr %5, align 8, !tbaa !9
  %10 = call ptr @lookup_object(ptr noundef %8, ptr noundef %9)
  store ptr %10, ptr %6, align 8, !tbaa !11
  %11 = load ptr, ptr %6, align 8, !tbaa !11
  %12 = icmp ne ptr %11, null
  br i1 %12, label %19, label %13

13:                                               ; preds = %2
  %14 = load ptr, ptr %4, align 8, !tbaa !4
  %15 = load ptr, ptr %5, align 8, !tbaa !9
  %16 = load ptr, ptr %4, align 8, !tbaa !4
  %17 = call ptr @alloc_blob_node(ptr noundef %16)
  %18 = call ptr @create_object(ptr noundef %14, ptr noundef %15, ptr noundef %17)
  store ptr %18, ptr %3, align 8
  store i32 1, ptr %7, align 4
  br label %22

19:                                               ; preds = %2
  %20 = load ptr, ptr %6, align 8, !tbaa !11
  %21 = call ptr @object_as_type(ptr noundef %20, i32 noundef 3, i32 noundef 0)
  store ptr %21, ptr %3, align 8
  store i32 1, ptr %7, align 4
  br label %22

22:                                               ; preds = %19, %13
  call void @llvm.lifetime.end.p0(i64 8, ptr %6) #3
  %23 = load ptr, ptr %3, align 8
  ret ptr %23
}

; Function Attrs: nocallback nofree nosync nounwind willreturn memory(argmem: readwrite)
declare void @llvm.lifetime.start.p0(i64 immarg, ptr captures(none)) #1

declare ptr @lookup_object(ptr noundef, ptr noundef) #2

declare ptr @create_object(ptr noundef, ptr noundef, ptr noundef) #2

declare ptr @alloc_blob_node(ptr noundef) #2

declare ptr @object_as_type(ptr noundef, i32 noundef, i32 noundef) #2

; Function Attrs: nocallback nofree nosync nounwind willreturn memory(argmem: readwrite)
declare void @llvm.lifetime.end.p0(i64 immarg, ptr captures(none)) #1

; Function Attrs: nounwind uwtable
define dso_local void @parse_blob_buffer(ptr noundef %0) #0 {
  %2 = alloca ptr, align 8
  store ptr %0, ptr %2, align 8, !tbaa !13
  %3 = load ptr, ptr %2, align 8, !tbaa !13
  %4 = getelementptr inbounds nuw %struct.blob, ptr %3, i32 0, i32 0
  %5 = load i32, ptr %4, align 4
  %6 = and i32 %5, -2
  %7 = or i32 %6, 1
  store i32 %7, ptr %4, align 4
  ret void
}


!llvm.module.flags = !{!0, !1, !2, !3}

!0 = !{i32 1, !"wchar_size", i32 4}
!1 = !{i32 8, !"PIC Level", i32 2}
!2 = !{i32 7, !"PIE Level", i32 2}
!3 = !{i32 7, !"uwtable", i32 2}
!4 = !{!5, !5, i64 0}
!5 = !{!"p1 _ZTS10repository", !6, i64 0}
!6 = !{!"any pointer", !7, i64 0}
!7 = !{!"omnipotent char", !8, i64 0}
!8 = !{!"Simple C/C++ TBAA"}
!9 = !{!10, !10, i64 0}
!10 = !{!"p1 _ZTS9object_id", !6, i64 0}
!11 = !{!12, !12, i64 0}
!12 = !{!"p1 _ZTS6object", !6, i64 0}
!13 = !{!14, !14, i64 0}
!14 = !{!"p1 _ZTS4blob", !6, i64 0}
